target datalayout = "e-m:e-p270:32:32-p271:32:32-p272:64:64-i64:64-i128:128-f80:128-n8:16:32:64-S128"
target triple = "x86_64-pc-linux-gnu"

%struct.hwloc_infos_s = type { ptr, i32, i32 }
%struct.hwloc_obj = type { i32, ptr, i32, ptr, i64, ptr, i32, i32, ptr, ptr, ptr, i32, ptr, ptr, i32, ptr, ptr, ptr, i32, i32, ptr, i32, ptr, i32, ptr, ptr, ptr, ptr, ptr, %struct.hwloc_infos_s, ptr, i64 }

; Function Attrs: inlinehint nounwind uwtable
define internal ptr @hwloc_get_next_obj_by_depth(ptr noundef %0, i32 noundef %1, ptr noundef %2) #4 {
  %4 = alloca ptr, align 8
  %5 = alloca ptr, align 8
  %6 = alloca i32, align 4
  %7 = alloca ptr, align 8
  store ptr %0, ptr %5, align 8, !tbaa !3
  store i32 %1, ptr %6, align 4, !tbaa !10
  store ptr %2, ptr %7, align 8, !tbaa !51
  %8 = load ptr, ptr %7, align 8, !tbaa !51
  %9 = icmp ne ptr %8, null
  br i1 %9, label %14, label %10

10:                                               ; preds = %3
  %11 = load ptr, ptr %5, align 8, !tbaa !3
  %12 = load i32, ptr %6, align 4, !tbaa !10
  %13 = call ptr @hwloc_get_obj_by_depth(ptr noundef %11, i32 noundef %12, i32 noundef 0) #10
  store ptr %13, ptr %4, align 8
  br label %25

14:                                               ; preds = %3
  %15 = load ptr, ptr %7, align 8, !tbaa !51
  %16 = getelementptr inbounds nuw %struct.hwloc_obj, ptr %15, i32 0, i32 6
  %17 = load i32, ptr %16, align 8, !tbaa !124
  %18 = load i32, ptr %6, align 4, !tbaa !10
  %19 = icmp ne i32 %17, %18
  br i1 %19, label %20, label %21

20:                                               ; preds = %14
  store ptr null, ptr %4, align 8
  br label %25

21:                                               ; preds = %14
  %22 = load ptr, ptr %7, align 8, !tbaa !51
  %23 = getelementptr inbounds nuw %struct.hwloc_obj, ptr %22, i32 0, i32 8
  %24 = load ptr, ptr %23, align 8, !tbaa !122
  store ptr %24, ptr %4, align 8
  br label %25

25:                                               ; preds = %21, %20, %10
  %26 = load ptr, ptr %4, align 8
  ret ptr %26
}

; Function Attrs: inlinehint nounwind uwtable
define internal i32 @hwloc_cpuset_from_nodeset(ptr noundef %0, ptr noundef %1, ptr noundef %2) #4 {
  %4 = alloca i32, align 4
  %5 = alloca ptr, align 8
  %6 = alloca ptr, align 8
  %7 = alloca ptr, align 8
  %8 = alloca i32, align 4
  %9 = alloca ptr, align 8
  %10 = alloca i32, align 4
  store ptr %0, ptr %5, align 8, !tbaa !3
  store ptr %1, ptr %6, align 8, !tbaa !8
  store ptr %2, ptr %7, align 8, !tbaa !8
  call void @llvm.lifetime.start.p0(i64 4, ptr %8) #9
  %11 = load ptr, ptr %5, align 8, !tbaa !3
  %12 = call i32 @hwloc_get_type_depth(ptr noundef %11, i32 noundef 14)
  store i32 %12, ptr %8, align 4, !tbaa !10
  call void @llvm.lifetime.start.p0(i64 8, ptr %9) #9
  store ptr null, ptr %9, align 8, !tbaa !51
  %13 = load ptr, ptr %6, align 8, !tbaa !8
  call void @hwloc_bitmap_zero(ptr noundef %13)
  br label %14

14:                                               ; preds = %37, %3
  %15 = load ptr, ptr %5, align 8, !tbaa !3
  %16 = load i32, ptr %8, align 4, !tbaa !10
  %17 = load ptr, ptr %9, align 8, !tbaa !51
  %18 = call ptr @hwloc_get_next_obj_by_depth(ptr noundef %15, i32 noundef %16, ptr noundef %17)
  store ptr %18, ptr %9, align 8, !tbaa !51
  %19 = icmp ne ptr %18, null
  br i1 %19, label %20, label %38

20:                                               ; preds = %14
  %21 = load ptr, ptr %7, align 8, !tbaa !8
  %22 = load ptr, ptr %9, align 8, !tbaa !51
  %23 = getelementptr inbounds nuw %struct.hwloc_obj, ptr %22, i32 0, i32 2
  %24 = load i32, ptr %23, align 8, !tbaa !53
  %25 = call i32 @hwloc_bitmap_isset(ptr noundef %21, i32 noundef %24) #10
  %26 = icmp ne i32 %25, 0
  br i1 %26, label %27, label %37

27:                                               ; preds = %20
  %28 = load ptr, ptr %6, align 8, !tbaa !8
  %29 = load ptr, ptr %6, align 8, !tbaa !8
  %30 = load ptr, ptr %9, align 8, !tbaa !51
  %31 = getelementptr inbounds nuw %struct.hwloc_obj, ptr %30, i32 0, i32 25
  %32 = load ptr, ptr %31, align 8, !tbaa !58
  %33 = call i32 @hwloc_bitmap_or(ptr noundef %28, ptr noundef %29, ptr noundef %32)
  %34 = icmp slt i32 %33, 0
  br i1 %34, label %35, label %36

35:                                               ; preds = %27
  store i32 -1, ptr %4, align 4
  store i32 1, ptr %10, align 4
  br label %39

36:                                               ; preds = %27
  br label %37

37:                                               ; preds = %36, %20
  br label %14, !llvm.loop !59

38:                                               ; preds = %14
  store i32 0, ptr %4, align 4
  store i32 1, ptr %10, align 4
  br label %39

39:                                               ; preds = %38, %35
  call void @llvm.lifetime.end.p0(i64 8, ptr %9) #9
  call void @llvm.lifetime.end.p0(i64 4, ptr %8) #9
  %40 = load i32, ptr %4, align 4
  ret i32 %40
}

; Function Attrs: nounwind uwtable
define i32 @hwloc_get_membind(ptr noundef %0, ptr noundef %1, ptr noundef %2, i32 noundef %3) #0 {
  %5 = alloca ptr, align 8
  %6 = alloca ptr, align 8
  %7 = alloca ptr, align 8
  %8 = alloca i32, align 4
  %9 = alloca i32, align 4
  %10 = alloca ptr, align 8
  store ptr %0, ptr %5, align 8, !tbaa !3
  store ptr %1, ptr %6, align 8, !tbaa !8
  store ptr %2, ptr %7, align 8, !tbaa !48
  store i32 %3, ptr %8, align 4, !tbaa !10
  call void @llvm.lifetime.start.p0(i64 4, ptr %9) #9
  %11 = load i32, ptr %8, align 4, !tbaa !10
  %12 = and i32 %11, 32
  %13 = icmp ne i32 %12, 0
  br i1 %13, label %14, label %20

14:                                               ; preds = %4
  %15 = load ptr, ptr %5, align 8, !tbaa !3
  %16 = load ptr, ptr %6, align 8, !tbaa !8
  %17 = load ptr, ptr %7, align 8, !tbaa !48
  %18 = load i32, ptr %8, align 4, !tbaa !10
  %19 = call i32 @hwloc_get_membind_by_nodeset(ptr noundef %15, ptr noundef %16, ptr noundef %17, i32 noundef %18)
  store i32 %19, ptr %9, align 4, !tbaa !10
  br label %36

20:                                               ; preds = %4
  call void @llvm.lifetime.start.p0(i64 8, ptr %10) #9
  %21 = call noalias ptr @hwloc_bitmap_alloc()
  store ptr %21, ptr %10, align 8, !tbaa !8
  %22 = load ptr, ptr %5, align 8, !tbaa !3
  %23 = load ptr, ptr %10, align 8, !tbaa !8
  %24 = load ptr, ptr %7, align 8, !tbaa !48
  %25 = load i32, ptr %8, align 4, !tbaa !10
  %26 = call i32 @hwloc_get_membind_by_nodeset(ptr noundef %22, ptr noundef %23, ptr noundef %24, i32 noundef %25)
  store i32 %26, ptr %9, align 4, !tbaa !10
  %27 = load i32, ptr %9, align 4, !tbaa !10
  %28 = icmp ne i32 %27, 0
  br i1 %28, label %34, label %29

29:                                               ; preds = %20
  %30 = load ptr, ptr %5, align 8, !tbaa !3
  %31 = load ptr, ptr %6, align 8, !tbaa !8
  %32 = load ptr, ptr %10, align 8, !tbaa !8
  %33 = call i32 @hwloc_cpuset_from_nodeset(ptr noundef %30, ptr noundef %31, ptr noundef %32)
  br label %34

34:                                               ; preds = %29, %20
  %35 = load ptr, ptr %10, align 8, !tbaa !8
  call void @hwloc_bitmap_free(ptr noundef %35)
  call void @llvm.lifetime.end.p0(i64 8, ptr %10) #9
  br label %36

36:                                               ; preds = %34, %14
  %37 = load i32, ptr %9, align 4, !tbaa !10
  call void @llvm.lifetime.end.p0(i64 4, ptr %9) #9
  ret i32 %37
}