; Function Attrs: nounwind uwtable
define i32 @hwloc_get_membind(ptr noundef %0, ptr noundef %1, ptr noundef %2, i32 noundef %3) local_unnamed_addr #0 {
  %5 = and i32 %3, 32
  %.not = icmp eq i32 %5, 0
  br i1 %.not, label %8, label %6

6:                                                ; preds = %4
  %7 = tail call fastcc i32 @hwloc_get_membind_by_nodeset(ptr noundef %0, ptr noundef %1, ptr noundef %2, i32 noundef %3)
  br label %31

8:                                                ; preds = %4
  %9 = tail call noalias ptr @hwloc_bitmap_alloc() #14
  %10 = tail call fastcc i32 @hwloc_get_membind_by_nodeset(ptr noundef %0, ptr noundef %9, ptr noundef %2, i32 noundef %3)
  %.not14 = icmp eq i32 %10, 0
  br i1 %.not14, label %11, label %hwloc_cpuset_from_nodeset.exit

11:                                               ; preds = %8
  %12 = tail call i32 @hwloc_get_type_depth(ptr noundef %0, i32 noundef 14) #14
  tail call void @hwloc_bitmap_zero(ptr noundef %1) #14
  br label %13

13:                                               ; preds = %.backedge, %11
  %.0.i = phi ptr [ null, %11 ], [ %.0.i.i, %.backedge ]
  %.not.i.i = icmp eq ptr %.0.i, null
  br i1 %.not.i.i, label %14, label %16

14:                                               ; preds = %13
  %15 = tail call ptr @hwloc_get_obj_by_depth(ptr noundef readonly %0, i32 noundef %12, i32 noundef 0) #13
  br label %hwloc_get_next_obj_by_depth.exit.i

16:                                               ; preds = %13
  %17 = getelementptr inbounds nuw i8, ptr %.0.i, i64 48
  %18 = load i32, ptr %17, align 8, !tbaa !44
  %.not7.i.i = icmp eq i32 %18, %12
  br i1 %.not7.i.i, label %19, label %hwloc_cpuset_from_nodeset.exit

19:                                               ; preds = %16
  %20 = getelementptr inbounds nuw i8, ptr %.0.i, i64 56
  %21 = load ptr, ptr %20, align 8, !tbaa !50
  br label %hwloc_get_next_obj_by_depth.exit.i

hwloc_get_next_obj_by_depth.exit.i:               ; preds = %19, %14
  %.0.i.i = phi ptr [ %21, %19 ], [ %15, %14 ]
  %.not.i = icmp eq ptr %.0.i.i, null
  br i1 %.not.i, label %hwloc_cpuset_from_nodeset.exit, label %22

22:                                               ; preds = %hwloc_get_next_obj_by_depth.exit.i
  %23 = getelementptr inbounds nuw i8, ptr %.0.i.i, i64 16
  %24 = load i32, ptr %23, align 8, !tbaa !54
  %25 = tail call i32 @hwloc_bitmap_isset(ptr noundef readonly %9, i32 noundef %24) #13
  %.not12.i = icmp eq i32 %25, 0
  br i1 %.not12.i, label %.backedge, label %26

26:                                               ; preds = %22
  %27 = getelementptr inbounds nuw i8, ptr %.0.i.i, i64 184
  %28 = load ptr, ptr %27, align 8, !tbaa !51
  %29 = tail call i32 @hwloc_bitmap_or(ptr noundef %1, ptr noundef %1, ptr noundef %28) #14
  %30 = icmp slt i32 %29, 0
  br i1 %30, label %hwloc_cpuset_from_nodeset.exit, label %.backedge

.backedge:                                        ; preds = %26, %22
  br label %13, !llvm.loop !56

hwloc_cpuset_from_nodeset.exit:                   ; preds = %26, %hwloc_get_next_obj_by_depth.exit.i, %16, %8
  tail call void @hwloc_bitmap_free(ptr noundef %9) #14
  br label %31

31:                                               ; preds = %hwloc_cpuset_from_nodeset.exit, %6
  %.0 = phi i32 [ %7, %6 ], [ %10, %hwloc_cpuset_from_nodeset.exit ]
  ret i32 %.0
}